target datalayout = "e-m:e-p270:32:32-p271:32:32-p272:64:64-i64:64-i128:128-f80:128-n8:16:32:64-S128"
target triple = "x86_64-pc-linux-gnu"

@stderr = external global ptr, align 8
@.str.88 = private unnamed_addr constant [99 x i8] c"You could also be lucky that switching to double precision is sufficient to obtain finite forces.\0A\00", align 1
@.str.89 = private unnamed_addr constant [119 x i8] c"\0AEnergy minimization reached the maximum number of steps before the forces reached the requested precision Fmax < %g.\0A\00", align 1
@.str.91 = private unnamed_addr constant [125 x i8] c"\0ADouble precision normally gives you higher accuracy, but this is often not needed for preparing to run molecular dynamics.\0A\00", align 1
@.str.92 = private unnamed_addr constant [126 x i8] c"You might need to increase your constraint accuracy, or turn\0Aoff constraints altogether (set constraints = none in mdp file)\0A\00", align 1
@.str.93 = private unnamed_addr constant [1 x i8] zeroinitializer, align 1

; Function Attrs: mustprogress nounwind uwtable
define linkonce_odr noundef zeroext i1 @_ZSt8isfinitef(float noundef %0) #3 comdat {
  %2 = alloca float, align 4
  store float %0, ptr %2, align 4
  %3 = load float, ptr %2, align 4
  %4 = call i1 @llvm.is.fpclass.f32(float %3, i32 504)
  ret i1 %4
}

; Function Attrs: mustprogress uwtable
define internal void @_ZL9warn_stepP8_IO_FILEffbb(ptr noundef %0, float noundef %1, float noundef %2, i1 noundef zeroext %3, i1 noundef zeroext %4) #2 {
  %6 = alloca ptr, align 8
  %7 = alloca float, align 4
  %8 = alloca float, align 4
  %9 = alloca i8, align 1
  %10 = alloca i8, align 1
  %11 = alloca i8, align 1
  %12 = alloca [2048 x i8], align 16
  store ptr %0, ptr %6, align 8
  store float %1, ptr %7, align 4
  store float %2, ptr %8, align 4
  %13 = zext i1 %3 to i8
  store i8 %13, ptr %9, align 1
  %14 = zext i1 %4 to i8
  store i8 %14, ptr %10, align 1
  store i8 0, ptr %11, align 1
  %15 = load float, ptr %8, align 4
  %16 = call noundef zeroext i1 @_ZSt8isfinitef(float noundef %15)
  br i1 %16, label %20, label %17

17:                                               ; preds = %5
  %18 = getelementptr inbounds [2048 x i8], ptr %12, i64 0, i64 0
  %19 = call i32 (ptr, ptr, ...) @sprintf(ptr noundef %18, ptr noundef @.str.87, ptr noundef @.str.88) #4
  br label %37

20:                                               ; preds = %5
  %21 = load i8, ptr %9, align 1
  %22 = trunc i8 %21 to i1
  br i1 %22, label %23, label %28

23:                                               ; preds = %20
  %24 = getelementptr inbounds [2048 x i8], ptr %12, i64 0, i64 0
  %25 = load float, ptr %7, align 4
  %26 = fpext float %25 to double
  %27 = call i32 (ptr, ptr, ...) @sprintf(ptr noundef %24, ptr noundef @.str.89, double noundef %26) #4
  br label %36

28:                                               ; preds = %20
  %29 = getelementptr inbounds [2048 x i8], ptr %12, i64 0, i64 0
  %30 = load float, ptr %7, align 4
  %31 = fpext float %30 to double
  %32 = load i8, ptr %10, align 1
  %33 = trunc i8 %32 to i1
  %34 = select i1 %33, ptr @.str.92, ptr @.str.93
  %35 = call i32 (ptr, ptr, ...) @sprintf(ptr noundef %29, ptr noundef @.str.90, double noundef %31, ptr noundef @.str.91, ptr noundef %34) #4
  br label %36

36:                                               ; preds = %28, %23
  br label %37

37:                                               ; preds = %36, %17
  %38 = getelementptr inbounds [2048 x i8], ptr %12, i64 0, i64 0
  %39 = call noundef ptr @_Z10wrap_linesPKciib(ptr noundef %38, i32 noundef 78, i32 noundef 0, i1 noundef zeroext false)
  %40 = load ptr, ptr @stderr, align 8
  %41 = call i32 @fputs(ptr noundef %39, ptr noundef %40)
  %42 = getelementptr inbounds [2048 x i8], ptr %12, i64 0, i64 0
  %43 = call noundef ptr @_Z10wrap_linesPKciib(ptr noundef %42, i32 noundef 78, i32 noundef 0, i1 noundef zeroext false)
  %44 = load ptr, ptr %6, align 8
  %45 = call i32 @fputs(ptr noundef %43, ptr noundef %44)
  ret void
}