; Function Attrs: mustprogress uwtable
define internal fastcc void @_ZL9warn_stepP8_IO_FILEffbb(ptr nocapture noundef %0, float noundef %1, float noundef %2, i1 noundef zeroext %3, i1 noundef zeroext %4) unnamed_addr #1 {
  %6 = alloca [2048 x i8], align 16
  %7 = tail call float @llvm.fabs.f32(float %2)
  %8 = fcmp ueq float %7, 0x7FF0000000000000
  br i1 %8, label %9, label %11

9:                                                ; preds = %5
  %10 = call i32 (ptr, ptr, ...) @sprintf(ptr noundef nonnull dereferenceable(1) %6, ptr noundef nonnull dereferenceable(1) @.str.87, ptr noundef nonnull @.str.88) #17
  br label %18

11:                                               ; preds = %5
  %12 = fpext float %1 to double
  br i1 %3, label %13, label %15

13:                                               ; preds = %11
  %14 = call i32 (ptr, ptr, ...) @sprintf(ptr noundef nonnull dereferenceable(1) %6, ptr noundef nonnull dereferenceable(1) @.str.89, double noundef %12) #17
  br label %18

15:                                               ; preds = %11
  %16 = select i1 %4, ptr @.str.92, ptr @.str.93
  %17 = call i32 (ptr, ptr, ...) @sprintf(ptr noundef nonnull dereferenceable(1) %6, ptr noundef nonnull dereferenceable(1) @.str.90, double noundef %12, ptr noundef nonnull @.str.91, ptr noundef nonnull %16) #17
  br label %18

18:                                               ; preds = %13, %15, %9
  %19 = call noundef ptr @_Z10wrap_linesPKciib(ptr noundef nonnull %6, i32 noundef 78, i32 noundef 0, i1 noundef zeroext false)
  %20 = load ptr, ptr @stderr, align 8
  %21 = call i32 @fputs(ptr noundef %19, ptr noundef %20) #30
  %22 = call noundef ptr @_Z10wrap_linesPKciib(ptr noundef nonnull %6, i32 noundef 78, i32 noundef 0, i1 noundef zeroext false)
  %23 = call i32 @fputs(ptr noundef %22, ptr noundef %0)
  ret void
}